target datalayout = "e-m:e-p270:32:32-p271:32:32-p272:64:64-i64:64-i128:128-f80:128-n8:16:32:64-S128"
target triple = "x86_64-pc-linux-gnu"

%struct._packet_info = type { ptr, ptr, i32, i32, %struct.nstime_t, %struct.nstime_t, %struct.nstime_t, i8, ptr, ptr, ptr, ptr, %struct._address, %struct._address, %struct._address, %struct._address, %struct._address, %struct._address, i32, ptr, i8, [3 x i8], %struct.anon, i32, i32, i32, i32, ptr, i8, ptr, ptr, i16, i16, i32, i32, i16, i32, i32, ptr, ptr, ptr, i8, i8, i16, i16, i16, i32, i16, i16, ptr, ptr, ptr, ptr, ptr, i32, i32 }
%struct.nstime_t = type { i64, i32 }
%struct._address = type { i32, i32, ptr, ptr }
%struct.anon = type { i8, [3 x i8] }

@.str.1170 = private unnamed_addr constant [7 x i8] c"%s: %s\00", align 1
@.str.1171 = private unnamed_addr constant [8 x i8] c", %s=%s\00", align 1

; Function Attrs: null_pointer_is_valid sspstrong uwtable
define internal void @add_item_value_string(ptr noundef %0, ptr noundef %1, ptr noundef %2, ptr noundef %3, i32 noundef %4, i32 noundef %5, i32 noundef %6, ptr noundef %7, i32 noundef %8) #0 {
  %10 = alloca ptr, align 8
  %11 = alloca ptr, align 8
  %12 = alloca ptr, align 8
  %13 = alloca ptr, align 8
  %14 = alloca i32, align 4
  %15 = alloca i32, align 4
  %16 = alloca i32, align 4
  %17 = alloca ptr, align 8
  %18 = alloca i32, align 4
  %19 = alloca ptr, align 8
  store ptr %0, ptr %10, align 8
  store ptr %1, ptr %11, align 8
  store ptr %2, ptr %12, align 8
  store ptr %3, ptr %13, align 8
  store i32 %4, ptr %14, align 4
  store i32 %5, ptr %15, align 4
  store i32 %6, ptr %16, align 4
  store ptr %7, ptr %17, align 8
  store i32 %8, ptr %18, align 4
  call void @llvm.lifetime.start.p0(i64 8, ptr %19) #3
  %20 = load ptr, ptr %11, align 8
  %21 = getelementptr inbounds nuw %struct._packet_info, ptr %20, i32 0, i32 51
  %22 = load ptr, ptr %21, align 8
  %23 = load ptr, ptr %10, align 8
  %24 = load i32, ptr %15, align 4
  %25 = load i32, ptr %16, align 4
  %26 = call ptr @tvb_get_string_enc(ptr noundef %22, ptr noundef %23, i32 noundef %24, i32 noundef %25, i32 noundef 0)
  store ptr %26, ptr %19, align 8
  %27 = load ptr, ptr %13, align 8
  %28 = load i32, ptr %14, align 4
  %29 = load ptr, ptr %10, align 8
  %30 = load i32, ptr %15, align 4
  %31 = load i32, ptr %16, align 4
  %32 = load ptr, ptr %17, align 8
  %33 = load ptr, ptr %19, align 8
  %34 = call ptr (ptr, i32, ptr, i32, i32, ptr, ...) @proto_tree_add_none_format(ptr noundef %27, i32 noundef %28, ptr noundef %29, i32 noundef %30, i32 noundef %31, ptr noundef @.str.1170, ptr noundef %32, ptr noundef %33)
  %35 = load i32, ptr %18, align 4
  %36 = icmp ne i32 %35, 0
  br i1 %36, label %37, label %41

37:                                               ; preds = %9
  %38 = load ptr, ptr %12, align 8
  %39 = load ptr, ptr %17, align 8
  %40 = load ptr, ptr %19, align 8
  call void (ptr, ptr, ...) @proto_item_append_text(ptr noundef %38, ptr noundef @.str.1171, ptr noundef %39, ptr noundef %40)
  br label %41

41:                                               ; preds = %37, %9
  call void @llvm.lifetime.end.p0(i64 8, ptr %19) #3
  ret void
}