; Function Attrs: null_pointer_is_valid sspstrong uwtable
define internal fastcc void @add_item_value_string(ptr noundef %0, ptr %.408.val, ptr noundef %1, ptr noundef %2, i32 noundef %3, i32 noundef %4, i32 noundef range(i32 0, -2147483648) %5, ptr noundef %6, i32 noundef range(i32 0, 2) %7) unnamed_addr #0 {
  %9 = tail call ptr @tvb_get_string_enc(ptr noundef %.408.val, ptr noundef %0, i32 noundef %4, i32 noundef %5, i32 noundef 0)
  %10 = tail call ptr (ptr, i32, ptr, i32, i32, ptr, ...) @proto_tree_add_none_format(ptr noundef %2, i32 noundef %3, ptr noundef %0, i32 noundef %4, i32 noundef %5, ptr noundef nonnull @.str.1170, ptr noundef %6, ptr noundef %9)
  %.not = icmp eq i32 %7, 0
  br i1 %.not, label %12, label %11

11:                                               ; preds = %8
  tail call void (ptr, ptr, ...) @proto_item_append_text(ptr noundef %1, ptr noundef nonnull @.str.1171, ptr noundef %6, ptr noundef %9)
  br label %12

12:                                               ; preds = %11, %8
  ret void
}